; Function Attrs: mustprogress nounwind uwtable
define internal void @_ZNSt23_Sp_counted_ptr_inplaceIN12_GLOBAL__N_119ColorMomentHashImplESaIvELN9__gnu_cxx12_Lock_policyE2EE10_M_disposeEv(ptr noundef nonnull align 8 dereferenceable(432) %0) unnamed_addr #7 align 2 personality ptr @__gxx_personality_v0 {
  %2 = getelementptr inbounds nuw i8, ptr %0, i64 336
  tail call void @_ZN2cv3MatD1Ev(ptr noundef nonnull align 8 dereferenceable(96) %2) #19
  %3 = getelementptr inbounds nuw i8, ptr %0, i64 240
  tail call void @_ZN2cv3MatD1Ev(ptr noundef nonnull align 8 dereferenceable(96) %3) #19
  %4 = getelementptr inbounds nuw i8, ptr %0, i64 216
  %5 = load ptr, ptr %4, align 8, !tbaa !31
  %6 = getelementptr inbounds nuw i8, ptr %0, i64 224
  %7 = load ptr, ptr %6, align 8, !tbaa !34
  %.not4.i.i.i.i.i.i.i = icmp eq ptr %5, %7
  br i1 %.not4.i.i.i.i.i.i.i, label %_ZSt8_DestroyIPN2cv3MatES1_EvT_S3_RSaIT0_E.exit.i.i.i.i, label %.lr.ph.i.i.i.i.i.i.i

.lr.ph.i.i.i.i.i.i.i:                             ; preds = %1, %.lr.ph.i.i.i.i.i.i.i
  %.05.i.i.i.i.i.i.i = phi ptr [ %8, %.lr.ph.i.i.i.i.i.i.i ], [ %5, %1 ]
  tail call void @_ZN2cv3MatD1Ev(ptr noundef nonnull align 8 dereferenceable(96) %.05.i.i.i.i.i.i.i) #19
  %8 = getelementptr inbounds nuw i8, ptr %.05.i.i.i.i.i.i.i, i64 96
  %.not.i.i.i.i.i.i.i = icmp eq ptr %8, %7
  br i1 %.not.i.i.i.i.i.i.i, label %_ZSt8_DestroyIPN2cv3MatES1_EvT_S3_RSaIT0_E.exitthread-pre-split.i.i.i.i, label %.lr.ph.i.i.i.i.i.i.i, !llvm.loop !35

_ZSt8_DestroyIPN2cv3MatES1_EvT_S3_RSaIT0_E.exitthread-pre-split.i.i.i.i: ; preds = %.lr.ph.i.i.i.i.i.i.i
  %.pr.i.i.i.i = load ptr, ptr %4, align 8, !tbaa !31
  br label %_ZSt8_DestroyIPN2cv3MatES1_EvT_S3_RSaIT0_E.exit.i.i.i.i

_ZSt8_DestroyIPN2cv3MatES1_EvT_S3_RSaIT0_E.exit.i.i.i.i: ; preds = %_ZSt8_DestroyIPN2cv3MatES1_EvT_S3_RSaIT0_E.exitthread-pre-split.i.i.i.i, %1
  %9 = phi ptr [ %.pr.i.i.i.i, %_ZSt8_DestroyIPN2cv3MatES1_EvT_S3_RSaIT0_E.exitthread-pre-split.i.i.i.i ], [ %5, %1 ]
  %.not.i.i.i.i.i.i = icmp eq ptr %9, null
  br i1 %.not.i.i.i.i.i.i, label %_ZNSt16allocator_traitsISaIvEE7destroyIN12_GLOBAL__N_119ColorMomentHashImplEEEvRS0_PT_.exit, label %10

10:                                               ; preds = %_ZSt8_DestroyIPN2cv3MatES1_EvT_S3_RSaIT0_E.exit.i.i.i.i
  tail call void @_ZdlPv(ptr noundef nonnull %9) #22
  br label %_ZNSt16allocator_traitsISaIvEE7destroyIN12_GLOBAL__N_119ColorMomentHashImplEEEvRS0_PT_.exit

_ZNSt16allocator_traitsISaIvEE7destroyIN12_GLOBAL__N_119ColorMomentHashImplEEEvRS0_PT_.exit: ; preds = %_ZSt8_DestroyIPN2cv3MatES1_EvT_S3_RSaIT0_E.exit.i.i.i.i, %10
  %11 = getelementptr inbounds nuw i8, ptr %0, i64 120
  tail call void @_ZN2cv3MatD1Ev(ptr noundef nonnull align 8 dereferenceable(96) %11) #19
  %12 = getelementptr inbounds nuw i8, ptr %0, i64 24
  tail call void @_ZN2cv3MatD1Ev(ptr noundef nonnull align 8 dereferenceable(96) %12) #19
  ret void
}